target datalayout = "e-m:e-p270:32:32-p271:32:32-p272:64:64-i64:64-i128:128-f80:128-n8:16:32:64-S128"
target triple = "x86_64-pc-linux-gnu"

%struct.fieldnode = type { i16, i16, i16, i16, i16, i32, i32, i32, i32, i16, i16, i16, i16, i32, i32, i32, i32, ptr, ptr, ptr, ptr, ptr, ptr, ptr, ptr }
%struct._win_st = type { i16, i16, i16, i16, i16, i16, i16, i32, i32, i8, i8, i8, i8, i8, i8, i8, i8, i8, i32, ptr, i16, i16, i32, i32, ptr, %struct.pdat, i16 }
%struct.pdat = type { i16, i16, i16, i16, i16, i16 }

; Function Attrs: nounwind uwtable
define internal ptr @After_End_Of_Data(ptr noundef %0, i32 noundef %1) #0 {
  %3 = alloca ptr, align 8
  %4 = alloca i32, align 4
  %5 = alloca ptr, align 8
  store ptr %0, ptr %3, align 8, !tbaa !55
  store i32 %1, ptr %4, align 4, !tbaa !35
  call void @llvm.lifetime.start.p0(i64 8, ptr %5) #9
  %6 = load ptr, ptr %3, align 8, !tbaa !55
  %7 = load i32, ptr %4, align 4, !tbaa !35
  %8 = sext i32 %7 to i64
  %9 = getelementptr inbounds i8, ptr %6, i64 %8
  store ptr %9, ptr %5, align 8, !tbaa !55
  br label %10

10:                                               ; preds = %22, %2
  %11 = load ptr, ptr %5, align 8, !tbaa !55
  %12 = load ptr, ptr %3, align 8, !tbaa !55
  %13 = icmp ugt ptr %11, %12
  br i1 %13, label %14, label %20

14:                                               ; preds = %10
  %15 = load ptr, ptr %5, align 8, !tbaa !55
  %16 = getelementptr inbounds i8, ptr %15, i64 -1
  %17 = load i8, ptr %16, align 1, !tbaa !65
  %18 = sext i8 %17 to i32
  %19 = icmp eq i32 %18, 32
  br label %20

20:                                               ; preds = %14, %10
  %21 = phi i1 [ false, %10 ], [ %19, %14 ]
  br i1 %21, label %22, label %25

22:                                               ; preds = %20
  %23 = load ptr, ptr %5, align 8, !tbaa !55
  %24 = getelementptr inbounds i8, ptr %23, i32 -1
  store ptr %24, ptr %5, align 8, !tbaa !55
  br label %10, !llvm.loop !116

25:                                               ; preds = %20
  %26 = load ptr, ptr %5, align 8, !tbaa !55
  call void @llvm.lifetime.end.p0(i64 8, ptr %5) #9
  ret ptr %26
}

; Function Attrs: nounwind uwtable
define internal void @Buffer_To_Window(ptr noundef %0, ptr noundef %1) #0 {
  %3 = alloca ptr, align 8
  %4 = alloca ptr, align 8
  %5 = alloca i32, align 4
  %6 = alloca i32, align 4
  %7 = alloca i32, align 4
  %8 = alloca i32, align 4
  %9 = alloca ptr, align 8
  store ptr %0, ptr %3, align 8, !tbaa !17
  store ptr %1, ptr %4, align 8, !tbaa !20
  call void @llvm.lifetime.start.p0(i64 4, ptr %5) #9
  call void @llvm.lifetime.start.p0(i64 4, ptr %6) #9
  call void @llvm.lifetime.start.p0(i64 4, ptr %7) #9
  call void @llvm.lifetime.start.p0(i64 4, ptr %8) #9
  call void @llvm.lifetime.start.p0(i64 8, ptr %9) #9
  %10 = load ptr, ptr %4, align 8, !tbaa !20
  %11 = icmp ne ptr null, %10
  br i1 %11, label %12, label %18

12:                                               ; preds = %2
  %13 = load ptr, ptr %4, align 8, !tbaa !20
  %14 = getelementptr inbounds nuw %struct._win_st, ptr %13, i32 0, i32 2
  %15 = load i16, ptr %14, align 4, !tbaa !38
  %16 = sext i16 %15 to i32
  %17 = add nsw i32 %16, 1
  br label %19

18:                                               ; preds = %2
  br label %19

19:                                               ; preds = %18, %12
  %20 = phi i32 [ %17, %12 ], [ -1, %18 ]
  store i32 %20, ptr %6, align 4, !tbaa !35
  %21 = load ptr, ptr %4, align 8, !tbaa !20
  %22 = icmp ne ptr null, %21
  br i1 %22, label %23, label %29

23:                                               ; preds = %19
  %24 = load ptr, ptr %4, align 8, !tbaa !20
  %25 = getelementptr inbounds nuw %struct._win_st, ptr %24, i32 0, i32 3
  %26 = load i16, ptr %25, align 2, !tbaa !56
  %27 = sext i16 %26 to i32
  %28 = add nsw i32 %27, 1
  br label %30

29:                                               ; preds = %19
  br label %30

30:                                               ; preds = %29, %23
  %31 = phi i32 [ %28, %23 ], [ -1, %29 ]
  store i32 %31, ptr %5, align 4, !tbaa !35
  store i32 0, ptr %8, align 4, !tbaa !35
  %32 = load ptr, ptr %3, align 8, !tbaa !17
  %33 = getelementptr inbounds nuw %struct.fieldnode, ptr %32, i32 0, i32 23
  %34 = load ptr, ptr %33, align 8, !tbaa !54
  store ptr %34, ptr %9, align 8, !tbaa !55
  br label %35

35:                                               ; preds = %58, %30
  %36 = load i32, ptr %8, align 4, !tbaa !35
  %37 = load i32, ptr %6, align 4, !tbaa !35
  %38 = icmp slt i32 %36, %37
  br i1 %38, label %39, label %65

39:                                               ; preds = %35
  %40 = load ptr, ptr %9, align 8, !tbaa !55
  %41 = load i32, ptr %5, align 4, !tbaa !35
  %42 = call ptr @After_End_Of_Data(ptr noundef %40, i32 noundef %41)
  %43 = load ptr, ptr %9, align 8, !tbaa !55
  %44 = ptrtoint ptr %42 to i64
  %45 = ptrtoint ptr %43 to i64
  %46 = sub i64 %44, %45
  %47 = trunc i64 %46 to i32
  store i32 %47, ptr %7, align 4, !tbaa !35
  %48 = icmp sgt i32 %47, 0
  br i1 %48, label %49, label %57

49:                                               ; preds = %39
  %50 = load ptr, ptr %4, align 8, !tbaa !20
  %51 = load i32, ptr %8, align 4, !tbaa !35
  %52 = call i32 @wmove(ptr noundef %50, i32 noundef %51, i32 noundef 0)
  %53 = load ptr, ptr %4, align 8, !tbaa !20
  %54 = load ptr, ptr %9, align 8, !tbaa !55
  %55 = load i32, ptr %7, align 4, !tbaa !35
  %56 = call i32 @waddnstr(ptr noundef %53, ptr noundef %54, i32 noundef %55)
  br label %57

57:                                               ; preds = %49, %39
  br label %58

58:                                               ; preds = %57
  %59 = load i32, ptr %8, align 4, !tbaa !35
  %60 = add nsw i32 %59, 1
  store i32 %60, ptr %8, align 4, !tbaa !35
  %61 = load i32, ptr %5, align 4, !tbaa !35
  %62 = load ptr, ptr %9, align 8, !tbaa !55
  %63 = sext i32 %61 to i64
  %64 = getelementptr inbounds i8, ptr %62, i64 %63
  store ptr %64, ptr %9, align 8, !tbaa !55
  br label %35, !llvm.loop !57

65:                                               ; preds = %35
  call void @llvm.lifetime.end.p0(i64 8, ptr %9) #9
  call void @llvm.lifetime.end.p0(i64 4, ptr %8) #9
  call void @llvm.lifetime.end.p0(i64 4, ptr %7) #9
  call void @llvm.lifetime.end.p0(i64 4, ptr %6) #9
  call void @llvm.lifetime.end.p0(i64 4, ptr %5) #9
  ret void
}