; Function Attrs: nounwind uwtable
define internal fastcc void @Buffer_To_Window(ptr noundef nonnull readonly captures(none) %0, ptr noundef %1) unnamed_addr #0 {
  %.not = icmp eq ptr %1, null
  br i1 %.not, label %._crit_edge, label %.thread

.thread:                                          ; preds = %2
  %3 = getelementptr inbounds nuw i8, ptr %1, i64 4
  %4 = load i16, ptr %3, align 4, !tbaa !35
  %5 = sext i16 %4 to i32
  %6 = getelementptr inbounds nuw i8, ptr %1, i64 6
  %7 = load i16, ptr %6, align 2, !tbaa !58
  %8 = sext i16 %7 to i64
  %9 = icmp sgt i16 %4, -1
  br i1 %9, label %.lr.ph.preheader, label %._crit_edge

.lr.ph.preheader:                                 ; preds = %.thread
  %10 = getelementptr inbounds nuw i8, ptr %0, i64 104
  %11 = load ptr, ptr %10, align 8, !tbaa !52
  br label %.lr.ph

.lr.ph:                                           ; preds = %.lr.ph.preheader, %28
  %.021 = phi ptr [ %13, %28 ], [ %11, %.lr.ph.preheader ]
  %.01720 = phi i32 [ %29, %28 ], [ 0, %.lr.ph.preheader ]
  %12 = getelementptr i8, ptr %.021, i64 %8
  %13 = getelementptr i8, ptr %12, i64 1
  br label %14

14:                                               ; preds = %16, %.lr.ph
  %.0.i = phi ptr [ %13, %.lr.ph ], [ %17, %16 ]
  %15 = icmp ugt ptr %.0.i, %.021
  br i1 %15, label %16, label %After_End_Of_Data.exit

16:                                               ; preds = %14
  %17 = getelementptr inbounds i8, ptr %.0.i, i64 -1
  %18 = load i8, ptr %17, align 1, !tbaa !54
  %19 = icmp eq i8 %18, 32
  br i1 %19, label %14, label %After_End_Of_Data.exit, !llvm.loop !57

After_End_Of_Data.exit:                           ; preds = %14, %16
  %20 = ptrtoint ptr %.0.i to i64
  %21 = ptrtoint ptr %.021 to i64
  %22 = sub i64 %20, %21
  %23 = trunc i64 %22 to i32
  %24 = icmp sgt i32 %23, 0
  br i1 %24, label %25, label %28

25:                                               ; preds = %After_End_Of_Data.exit
  %26 = tail call i32 @wmove(ptr noundef nonnull %1, i32 noundef %.01720, i32 noundef 0) #13
  %27 = tail call i32 @waddnstr(ptr noundef nonnull %1, ptr noundef %.021, i32 noundef %23) #13
  br label %28

28:                                               ; preds = %After_End_Of_Data.exit, %25
  %29 = add nuw nsw i32 %.01720, 1
  %exitcond.not = icmp eq i32 %.01720, %5
  br i1 %exitcond.not, label %._crit_edge, label %.lr.ph, !llvm.loop !59

._crit_edge:                                      ; preds = %28, %2, %.thread
  ret void
}